target datalayout = "e-m:e-p270:32:32-p271:32:32-p272:64:64-i64:64-i128:128-f80:128-n8:16:32:64-S128"
target triple = "x86_64-pc-linux-gnu"

%"struct.Luau::Tarjan" = type { ptr, %"class.Luau::DenseHashMap", %"class.Luau::DenseHashMap.0", %"class.std::vector", %"class.std::vector.3", i32, i32, ptr, %"class.std::vector.8", %"class.std::vector.13", %"class.std::vector.18" }
%"class.Luau::DenseHashMap" = type { %"class.Luau::detail::DenseHashTable" }
%"class.Luau::detail::DenseHashTable" = type <{ ptr, i64, i64, ptr, [8 x i8] }>
%"class.Luau::DenseHashMap.0" = type { %"class.Luau::detail::DenseHashTable.1" }
%"class.Luau::detail::DenseHashTable.1" = type <{ ptr, i64, i64, ptr, [8 x i8] }>
%"class.std::vector" = type { %"struct.std::_Vector_base" }
%"struct.std::_Vector_base" = type { %"struct.std::_Vector_base<Luau::TarjanNode, std::allocator<Luau::TarjanNode>>::_Vector_impl" }
%"struct.std::_Vector_base<Luau::TarjanNode, std::allocator<Luau::TarjanNode>>::_Vector_impl" = type { %"struct.std::_Vector_base<Luau::TarjanNode, std::allocator<Luau::TarjanNode>>::_Vector_impl_data" }
%"struct.std::_Vector_base<Luau::TarjanNode, std::allocator<Luau::TarjanNode>>::_Vector_impl_data" = type { ptr, ptr, ptr }
%"class.std::vector.3" = type { %"struct.std::_Vector_base.4" }
%"struct.std::_Vector_base.4" = type { %"struct.std::_Vector_base<int, std::allocator<int>>::_Vector_impl" }
%"struct.std::_Vector_base<int, std::allocator<int>>::_Vector_impl" = type { %"struct.std::_Vector_base<int, std::allocator<int>>::_Vector_impl_data" }
%"struct.std::_Vector_base<int, std::allocator<int>>::_Vector_impl_data" = type { ptr, ptr, ptr }
%"class.std::vector.8" = type { %"struct.std::_Vector_base.9" }
%"struct.std::_Vector_base.9" = type { %"struct.std::_Vector_base<const Luau::Type *, std::allocator<const Luau::Type *>>::_Vector_impl" }
%"struct.std::_Vector_base<const Luau::Type *, std::allocator<const Luau::Type *>>::_Vector_impl" = type { %"struct.std::_Vector_base<const Luau::Type *, std::allocator<const Luau::Type *>>::_Vector_impl_data" }
%"struct.std::_Vector_base<const Luau::Type *, std::allocator<const Luau::Type *>>::_Vector_impl_data" = type { ptr, ptr, ptr }
%"class.std::vector.13" = type { %"struct.std::_Vector_base.14" }
%"struct.std::_Vector_base.14" = type { %"struct.std::_Vector_base<const Luau::TypePackVar *, std::allocator<const Luau::TypePackVar *>>::_Vector_impl" }
%"struct.std::_Vector_base<const Luau::TypePackVar *, std::allocator<const Luau::TypePackVar *>>::_Vector_impl" = type { %"struct.std::_Vector_base<const Luau::TypePackVar *, std::allocator<const Luau::TypePackVar *>>::_Vector_impl_data" }
%"struct.std::_Vector_base<const Luau::TypePackVar *, std::allocator<const Luau::TypePackVar *>>::_Vector_impl_data" = type { ptr, ptr, ptr }
%"class.std::vector.18" = type { %"struct.std::_Vector_base.19" }
%"struct.std::_Vector_base.19" = type { %"struct.std::_Vector_base<Luau::TarjanWorklistVertex, std::allocator<Luau::TarjanWorklistVertex>>::_Vector_impl" }
%"struct.std::_Vector_base<Luau::TarjanWorklistVertex, std::allocator<Luau::TarjanWorklistVertex>>::_Vector_impl" = type { %"struct.std::_Vector_base<Luau::TarjanWorklistVertex, std::allocator<Luau::TarjanWorklistVertex>>::_Vector_impl_data" }
%"struct.std::_Vector_base<Luau::TarjanWorklistVertex, std::allocator<Luau::TarjanWorklistVertex>>::_Vector_impl_data" = type { ptr, ptr, ptr }
%"struct.Luau::TarjanNode" = type { ptr, ptr, i8, i8, i32 }

; Function Attrs: mustprogress nounwind uwtable
define linkonce_odr dso_local noundef nonnull align 8 dereferenceable(24) ptr @_ZNSt6vectorIN4Luau10TarjanNodeESaIS1_EEixEm(ptr noundef nonnull align 8 dereferenceable(24) %0, i64 noundef %1) #2 comdat align 2 {
  %3 = alloca ptr, align 8
  %4 = alloca i64, align 8
  store ptr %0, ptr %3, align 8, !tbaa !78
  store i64 %1, ptr %4, align 8, !tbaa !74
  %5 = load ptr, ptr %3, align 8
  %6 = getelementptr inbounds nuw %"struct.std::_Vector_base", ptr %5, i32 0, i32 0
  %7 = getelementptr inbounds nuw %"struct.std::_Vector_base<Luau::TarjanNode, std::allocator<Luau::TarjanNode>>::_Vector_impl_data", ptr %6, i32 0, i32 0
  %8 = load ptr, ptr %7, align 8, !tbaa !89
  %9 = load i64, ptr %4, align 8, !tbaa !74
  %10 = getelementptr inbounds nuw %"struct.Luau::TarjanNode", ptr %8, i64 %9
  ret ptr %10
}

; Function Attrs: mustprogress nounwind uwtable
define dso_local noundef zeroext i1 @_ZN4Luau6Tarjan8getDirtyEi(ptr noundef nonnull align 8 dereferenceable(224) %0, i32 noundef %1) #2 align 2 {
  %3 = alloca ptr, align 8
  %4 = alloca i32, align 4
  store ptr %0, ptr %3, align 8, !tbaa !22
  store i32 %1, ptr %4, align 4, !tbaa !4
  %5 = load ptr, ptr %3, align 8
  %6 = getelementptr inbounds nuw %"struct.Luau::Tarjan", ptr %5, i32 0, i32 3
  %7 = load i32, ptr %4, align 4, !tbaa !4
  %8 = sext i32 %7 to i64
  %9 = call noundef nonnull align 8 dereferenceable(24) ptr @_ZNSt6vectorIN4Luau10TarjanNodeESaIS1_EEixEm(ptr noundef nonnull align 8 dereferenceable(24) %6, i64 noundef %8) #19
  %10 = getelementptr inbounds nuw %"struct.Luau::TarjanNode", ptr %9, i32 0, i32 3
  %11 = load i8, ptr %10, align 1, !tbaa !208, !range !17, !noundef !18
  %12 = trunc i8 %11 to i1
  ret i1 %12
}