; Function Attrs: mustprogress nofree norecurse nosync nounwind willreturn memory(read, inaccessiblemem: none) uwtable
define dso_local noundef zeroext i1 @_ZN4Luau6Tarjan8getDirtyEi(ptr noundef nonnull readonly align 8 captures(none) dereferenceable(224) %0, i32 noundef %1) local_unnamed_addr #7 align 2 {
  %3 = getelementptr inbounds nuw i8, ptr %0, i64 88
  %4 = sext i32 %1 to i64
  %5 = load ptr, ptr %3, align 8, !tbaa !35
  %6 = getelementptr inbounds nuw %"struct.Luau::TarjanNode", ptr %5, i64 %4, i32 3
  %7 = load i8, ptr %6, align 1, !tbaa !164, !range !117, !noundef !118
  %8 = trunc nuw i8 %7 to i1
  ret i1 %8
}